Certificate:
    Data:
        Version: 1 (0x0)
        Serial Number: 64207 (0xfacf)
    Signature Algorithm: sha1WithRSAEncryption
        Issuer: C=CN, ST=BEIJING, L=BEIJING, O=RRX, OU=RRX, CN=*.rrx360.com/emailAddress=mazhenguo@rrx360.com
        Validity
            Not Before: Dec 26 16:38:51 2016 GMT
            Not After : Dec 26 16:38:51 2017 GMT
        Subject: C=CN, ST=BEIJING, O=RRX, OU=RRX, L=BEIJING, CN=*.rrx360.com/emailAddress=mazhenguo@rrx360.com
        Subject Public Key Info:
            Public Key Algorithm: rsaEncryption
                Public-Key: (2048 bit)
                Modulus:
                    00:af:ec:5d:37:e8:ac:93:f5:2b:19:1e:ad:b4:44:
                    a4:f6:c4:76:fa:8d:a4:92:0c:5e:12:ad:d4:6c:31:
                    fc:e7:bc:0a:e0:40:88:4a:b9:09:07:ab:9c:07:b9:
                    02:13:a0:7c:7f:2c:04:1f:d3:2f:ab:c9:78:e2:fe:
                    c0:a6:8f:58:1a:8b:1d:8a:b7:90:7e:93:79:bb:cb:
                    f3:17:7b:42:66:58:4b:ca:94:c5:35:da:c5:3f:ec:
                    24:43:12:91:a1:47:15:3b:af:3a:c5:dc:c0:f2:64:
                    e4:3d:c1:f8:c7:4f:21:71:43:31:1b:80:a0:ac:36:
                    97:43:54:dc:4f:31:6b:00:e1:ee:29:10:4b:6e:22:
                    ae:70:5d:3d:06:3d:27:65:8c:39:7b:80:90:ca:7e:
                    d3:d3:7b:31:2d:ed:87:4c:6e:1e:f9:ca:46:f5:73:
                    44:77:d5:03:1e:e0:75:3e:d7:f2:5c:68:69:c6:23:
                    66:61:cd:51:b2:7e:c8:8f:77:00:72:7c:98:32:88:
                    7f:cd:d4:91:9a:e4:a4:40:b6:10:79:79:d6:b9:8f:
                    8b:76:9c:89:85:ea:8f:0d:93:94:13:fb:69:88:a0:
                    94:4b:0b:1c:52:cd:3d:94:24:95:29:a3:71:53:ee:
                    d9:45:b0:81:89:28:a3:2b:62:a7:39:d3:d1:dc:84:
                    57:45
                Exponent: 65537 (0x10001)
    Signature Algorithm: sha1WithRSAEncryption
         83:67:bf:1b:5d:c4:a9:76:32:05:93:c5:ac:28:15:65:33:bf:
         cb:c2:c5:af:53:02:ed:95:12:ff:4d:fe:4c:0e:c1:6a:21:f0:
         d7:86:83:df:68:1d:88:6e:1e:e2:ee:66:db:2b:be:86:f8:57:
         86:e8:b5:0a:de:96:91:b8:57:d8:ba:36:da:17:9d:f8:97:34:
         9c:d1:69:67:90:07:57:9d:76:fe:f2:41:34:05:04:6e:c7:2c:
         23:7b:c0:7e:32:51:ae:14:0b:8d:99:75:f0:2c:08:cf:05:51:
         f9:40:d3:89:6d:5a:92:86:af:97:f7:32:a4:cb:ca:74:7e:7e:
         27:2e:d1:e1:9c:97:77:bc:9d:21:24:23:7a:47:90:3c:f5:a1:
         00:c8:a8:3d:9a:73:ae:c3:67:50:c1:6d:ca:71:74:11:30:3d:
         42:11:c8:b8:6d:03:f1:3b:07:ca:56:b4:15:1f:27:18:38:34:
         22:a8:a1:ef:e1:7b:bf:47:bd:88:6d:0e:1a:cb:06:ae:0b:da:
         e0:11:b0:42:a8:11:7c:f8:63:30:8e:6e:58:a8:10:c7:25:75:
         e3:4b:78:f2:73:db:0b:9b:b0:d8:4d:c7:71:33:2d:2d:75:04:
         15:cd:d1:ff:3c:70:11:18:52:78:7b:b9:9d:34:24:0c:50:ca:
         64:2c:8b:96
-----BEGIN CERTIFICATE-----
MIIDijCCAnICAwD6zzANBgkqhkiG9w0BAQUFADCBiTELMAkGA1UEBhMCQ04xEDAO
BgNVBAgMB0JFSUpJTkcxEDAOBgNVBAcMB0JFSUpJTkcxDDAKBgNVBAoMA1JSWDEM
MAoGA1UECwwDUlJYMRUwEwYDVQQDDAwqLnJyeDM2MC5jb20xIzAhBgkqhkiG9w0B
CQEWFG1hemhlbmd1b0BycngzNjAuY29tMB4XDTE2MTIyNjE2Mzg1MVoXDTE3MTIy
NjE2Mzg1MVowgYkxCzAJBgNVBAYTAkNOMRAwDgYDVQQIDAdCRUlKSU5HMQwwCgYD
VQQKDANSUlgxDDAKBgNVBAsMA1JSWDEQMA4GA1UEBwwHQkVJSklORzEVMBMGA1UE
AwwMKi5ycngzNjAuY29tMSMwIQYJKoZIhvcNAQkBFhRtYXpoZW5ndW9AcnJ4MzYw
LmNvbTCCASIwDQYJKoZIhvcNAQEBBQADggEPADCCAQoCggEBAK/sXTforJP1Kxke
rbREpPbEdvqNpJIMXhKt1Gwx/Oe8CuBAiEq5CQernAe5AhOgfH8sBB/TL6vJeOL+
wKaPWBqLHYq3kH6TebvL8xd7QmZYS8qUxTXaxT/sJEMSkaFHFTuvOsXcwPJk5D3B
+MdPIXFDMRuAoKw2l0NU3E8xawDh7ikQS24irnBdPQY9J2WMOXuAkMp+09N7MS3t
h0xuHvnKRvVzRHfVAx7gdT7X8lxoacYjZmHNUbJ+yI93AHJ8mDKIf83UkZrkpEC2
EHl51rmPi3aciYXqjw2TlBP7aYiglEsLHFLNPZQklSmjcVPu2UWwgYkooytipznT
0dyEV0UCAwEAATANBgkqhkiG9w0BAQUFAAOCAQEAg2e/G13EqXYyBZPFrCgVZTO/
y8LFr1MC7ZUS/03+TA7BaiHw14aD32gdiG4e4u5m2yu+hvhXhui1Ct6WkbhX2Lo2
2hed+Jc0nNFpZ5AHV512/vJBNAUEbscsI3vAfjJRrhQLjZl18CwIzwVR+UDTiW1a
koavl/cypMvKdH5+Jy7R4ZyXd7ydISQjekeQPPWhAMioPZpzrsNnUMFtynF0ETA9
QhHIuG0D8TsHyla0FR8nGDg0Iqih7+F7v0e9iG0OGssGrgva4BGwQqgRfPhjMI5u
WKgQxyV140t48nPbC5uw2E3HcTMtLXUEFc3R/zxwERhSeHu5nTQkDFDKZCyLlg==
-----END CERTIFICATE-----
